target datalayout = "e-m:e-p270:32:32-p271:32:32-p272:64:64-i64:64-i128:128-f80:128-n8:16:32:64-S128"
target triple = "x86_64-pc-linux-gnu"

%struct.uv__queue = type { ptr, ptr }
%struct.uv_fs_event_s = type { ptr, ptr, i32, ptr, %struct.uv__queue, %union.anon.7, ptr, i32, ptr, ptr, %struct.uv__queue, i32 }
%union.anon.7 = type { [4 x ptr] }

; Function Attrs: nounwind uwtable
define dso_local i32 @uv_fs_event_getpath(ptr noundef %0, ptr noundef %1, ptr noundef %2) #0 {
  %4 = alloca i32, align 4
  %5 = alloca ptr, align 8
  %6 = alloca ptr, align 8
  %7 = alloca ptr, align 8
  %8 = alloca i64, align 8
  %9 = alloca i32, align 4
  store ptr %0, ptr %5, align 8
  store ptr %1, ptr %6, align 8
  store ptr %2, ptr %7, align 8
  call void @llvm.lifetime.start.p0(i64 8, ptr %8) #13
  %10 = load ptr, ptr %6, align 8
  %11 = icmp eq ptr %10, null
  br i1 %11, label %19, label %12

12:                                               ; preds = %3
  %13 = load ptr, ptr %7, align 8
  %14 = icmp eq ptr %13, null
  br i1 %14, label %19, label %15

15:                                               ; preds = %12
  %16 = load ptr, ptr %7, align 8
  %17 = load i64, ptr %16, align 8
  %18 = icmp eq i64 %17, 0
  br i1 %18, label %19, label %20

19:                                               ; preds = %15, %12, %3
  store i32 -22, ptr %4, align 4
  store i32 1, ptr %9, align 4
  br label %52

20:                                               ; preds = %15
  %21 = load ptr, ptr %5, align 8
  %22 = getelementptr inbounds nuw %struct.uv_fs_event_s, ptr %21, i32 0, i32 7
  %23 = load i32, ptr %22, align 8
  %24 = and i32 %23, 4
  %25 = icmp ne i32 %24, 0
  br i1 %25, label %28, label %26

26:                                               ; preds = %20
  %27 = load ptr, ptr %7, align 8
  store i64 0, ptr %27, align 8
  store i32 -22, ptr %4, align 4
  store i32 1, ptr %9, align 4
  br label %52

28:                                               ; preds = %20
  %29 = load ptr, ptr %5, align 8
  %30 = getelementptr inbounds nuw %struct.uv_fs_event_s, ptr %29, i32 0, i32 8
  %31 = load ptr, ptr %30, align 8
  %32 = call i64 @strlen(ptr noundef %31) #14
  store i64 %32, ptr %8, align 8
  %33 = load i64, ptr %8, align 8
  %34 = load ptr, ptr %7, align 8
  %35 = load i64, ptr %34, align 8
  %36 = icmp uge i64 %33, %35
  br i1 %36, label %37, label %41

37:                                               ; preds = %28
  %38 = load i64, ptr %8, align 8
  %39 = add i64 %38, 1
  %40 = load ptr, ptr %7, align 8
  store i64 %39, ptr %40, align 8
  store i32 -105, ptr %4, align 4
  store i32 1, ptr %9, align 4
  br label %52

41:                                               ; preds = %28
  %42 = load ptr, ptr %6, align 8
  %43 = load ptr, ptr %5, align 8
  %44 = getelementptr inbounds nuw %struct.uv_fs_event_s, ptr %43, i32 0, i32 8
  %45 = load ptr, ptr %44, align 8
  %46 = load i64, ptr %8, align 8
  call void @llvm.memcpy.p0.p0.i64(ptr align 1 %42, ptr align 1 %45, i64 %46, i1 false)
  %47 = load i64, ptr %8, align 8
  %48 = load ptr, ptr %7, align 8
  store i64 %47, ptr %48, align 8
  %49 = load ptr, ptr %6, align 8
  %50 = load i64, ptr %8, align 8
  %51 = getelementptr inbounds nuw i8, ptr %49, i64 %50
  store i8 0, ptr %51, align 1
  store i32 0, ptr %4, align 4
  store i32 1, ptr %9, align 4
  br label %52

52:                                               ; preds = %41, %37, %26, %19
  call void @llvm.lifetime.end.p0(i64 8, ptr %8) #13
  %53 = load i32, ptr %4, align 4
  ret i32 %53
}