; Function Attrs: mustprogress nofree nounwind willreturn memory(readwrite, inaccessiblemem: none) uwtable
define dso_local range(i32 -105, 1) i32 @uv_fs_event_getpath(ptr noundef readonly captures(none) %0, ptr noundef writeonly captures(address_is_null) %1, ptr noundef captures(address_is_null) %2) local_unnamed_addr #16 {
  %4 = icmp eq ptr %1, null
  %5 = icmp eq ptr %2, null
  %or.cond = or i1 %4, %5
  br i1 %or.cond, label %22, label %6

6:                                                ; preds = %3
  %7 = load i64, ptr %2, align 8
  %8 = icmp eq i64 %7, 0
  br i1 %8, label %22, label %9

9:                                                ; preds = %6
  %10 = getelementptr inbounds nuw i8, ptr %0, i64 88
  %11 = load i32, ptr %10, align 8
  %12 = and i32 %11, 4
  %.not = icmp eq i32 %12, 0
  br i1 %.not, label %13, label %14

13:                                               ; preds = %9
  store i64 0, ptr %2, align 8
  br label %22

14:                                               ; preds = %9
  %15 = getelementptr inbounds nuw i8, ptr %0, i64 96
  %16 = load ptr, ptr %15, align 8
  %17 = tail call i64 @strlen(ptr noundef nonnull dereferenceable(1) %16) #25
  %.not22 = icmp ult i64 %17, %7
  br i1 %.not22, label %20, label %18

18:                                               ; preds = %14
  %19 = add i64 %17, 1
  store i64 %19, ptr %2, align 8
  br label %22

20:                                               ; preds = %14
  tail call void @llvm.memcpy.p0.p0.i64(ptr nonnull align 1 %1, ptr nonnull align 1 %16, i64 %17, i1 false)
  store i64 %17, ptr %2, align 8
  %21 = getelementptr inbounds nuw i8, ptr %1, i64 %17
  store i8 0, ptr %21, align 1
  br label %22

22:                                               ; preds = %3, %6, %20, %18, %13
  %.0 = phi i32 [ -105, %18 ], [ 0, %20 ], [ -22, %13 ], [ -22, %6 ], [ -22, %3 ]
  ret i32 %.0
}